; Function Attrs: mustprogress nounwind uwtable
define void @_ZN3nix6FdSinkD2Ev(ptr noundef nonnull align 8 dereferenceable(49) %0, ptr nocapture noundef readonly %1) unnamed_addr #3 align 2 personality ptr @__gxx_personality_v0 {
  %3 = load ptr, ptr %1, align 8
  store ptr %3, ptr %0, align 8
  %4 = getelementptr inbounds i8, ptr %1, i64 24
  %5 = load ptr, ptr %4, align 8
  %6 = getelementptr i8, ptr %3, i64 -48
  %7 = load i64, ptr %6, align 8
  %8 = getelementptr inbounds i8, ptr %0, i64 %7
  store ptr %5, ptr %8, align 8
  %9 = getelementptr inbounds i8, ptr %0, i64 16
  %10 = load i64, ptr %9, align 8
  %11 = icmp eq i64 %10, 0
  br i1 %11, label %_ZN3nix12BufferedSink5flushEv.exit, label %12

12:                                               ; preds = %2
  store i64 0, ptr %9, align 8
  %13 = getelementptr inbounds i8, ptr %0, i64 24
  %14 = load ptr, ptr %13, align 8
  %15 = load ptr, ptr %0, align 8
  %16 = getelementptr inbounds i8, ptr %15, i64 32
  %17 = load ptr, ptr %16, align 8
  invoke void %17(ptr noundef nonnull align 8 dereferenceable(32) %0, i64 %10, ptr %14)
          to label %_ZN3nix12BufferedSink5flushEv.exit unwind label %18

18:                                               ; preds = %12
  %19 = landingpad { ptr, i32 }
          catch ptr null
  %20 = extractvalue { ptr, i32 } %19, 0
  %21 = tail call ptr @__cxa_begin_catch(ptr %20) #34
  invoke void @_ZN3nix15ignoreExceptionENS_9VerbosityE(i32 noundef 0)
          to label %22 unwind label %32

22:                                               ; preds = %18
  invoke void @__cxa_end_catch()
          to label %_ZN3nix12BufferedSink5flushEv.exit unwind label %32

_ZN3nix12BufferedSink5flushEv.exit:               ; preds = %2, %12, %22
  %23 = getelementptr inbounds i8, ptr %1, i64 8
  %24 = load ptr, ptr %23, align 8
  store ptr %24, ptr %0, align 8
  %25 = getelementptr inbounds i8, ptr %1, i64 16
  %26 = load ptr, ptr %25, align 8
  %27 = getelementptr i8, ptr %24, i64 -48
  %28 = load i64, ptr %27, align 8
  %29 = getelementptr inbounds i8, ptr %0, i64 %28
  store ptr %26, ptr %29, align 8
  %30 = getelementptr inbounds i8, ptr %0, i64 24
  %31 = load ptr, ptr %30, align 8
  %.not.i.i = icmp eq ptr %31, null
  br i1 %.not.i.i, label %_ZN3nix12BufferedSinkD2Ev.exit, label %_ZNKSt14default_deleteIA_cEclIcEENSt9enable_ifIXsr14is_convertibleIPA_T_PS0_EE5valueEvE4typeEPS4_.exit.i.i

_ZNKSt14default_deleteIA_cEclIcEENSt9enable_ifIXsr14is_convertibleIPA_T_PS0_EE5valueEvE4typeEPS4_.exit.i.i: ; preds = %_ZN3nix12BufferedSink5flushEv.exit
  tail call void @_ZdaPv(ptr noundef nonnull %31) #36
  br label %_ZN3nix12BufferedSinkD2Ev.exit

_ZN3nix12BufferedSinkD2Ev.exit:                   ; preds = %_ZN3nix12BufferedSink5flushEv.exit, %_ZNKSt14default_deleteIA_cEclIcEENSt9enable_ifIXsr14is_convertibleIPA_T_PS0_EE5valueEvE4typeEPS4_.exit.i.i
  store ptr null, ptr %30, align 8
  ret void

32:                                               ; preds = %22, %18
  %33 = landingpad { ptr, i32 }
          catch ptr null
  %34 = extractvalue { ptr, i32 } %33, 0
  tail call void @__clang_call_terminate(ptr %34) #38
  unreachable
}